target datalayout = "e-m:e-p270:32:32-p271:32:32-p272:64:64-i64:64-i128:128-f80:128-n8:16:32:64-S128"
target triple = "x86_64-pc-linux-gnu"

%struct.AVFilterContext = type { ptr, ptr, ptr, ptr, ptr, i32, ptr, ptr, i32, ptr, ptr, i32, i32, ptr, ptr, ptr, ptr, i32, ptr, i32, i32 }
%struct.ESTDIFContext = type { ptr, i32, i32, i32, i32, i32, i32, i32, i32, i32, [4 x i32], [4 x i32], [4 x i32], i32, i32, i32, i32, i32, i32, ptr, ptr, [3 x ptr], [3 x ptr] }
%struct.AVFilterLink = type { ptr, ptr, ptr, ptr, i32, i32, i32, i32, %struct.AVRational, i32, i32, i32, %struct.AVChannelLayout, %struct.AVRational, ptr, i32, %struct.AVFilterFormatsConfig, %struct.AVFilterFormatsConfig }
%struct.AVChannelLayout = type { i32, i32, %union.anon.1, ptr }
%union.anon.1 = type { i64 }
%struct.AVRational = type { i32, i32 }
%struct.AVFilterFormatsConfig = type { ptr, ptr, ptr, ptr, ptr }
%struct.AVPixFmtDescriptor = type { ptr, i8, i8, i8, i64, [4 x %struct.AVComponentDescriptor], ptr }
%struct.AVComponentDescriptor = type { i32, i32, i32, i32, i32 }

@.str.3 = private unnamed_addr constant [45 x i8] c"Video of less than 3 lines is not supported\0A\00", align 1

; Function Attrs: nounwind uwtable
define internal i32 @config_input(ptr noundef %0) #2 {
  %2 = alloca i32, align 4
  %3 = alloca ptr, align 8
  %4 = alloca ptr, align 8
  %5 = alloca ptr, align 8
  %6 = alloca ptr, align 8
  %7 = alloca i32, align 4
  %8 = alloca i32, align 4
  store ptr %0, ptr %3, align 8, !tbaa !24
  call void @llvm.lifetime.start.p0(i64 8, ptr %4) #12
  %9 = load ptr, ptr %3, align 8, !tbaa !24
  %10 = getelementptr inbounds nuw %struct.AVFilterLink, ptr %9, i32 0, i32 2
  %11 = load ptr, ptr %10, align 8, !tbaa !28
  store ptr %11, ptr %4, align 8, !tbaa !4
  call void @llvm.lifetime.start.p0(i64 8, ptr %5) #12
  %12 = load ptr, ptr %4, align 8, !tbaa !4
  %13 = getelementptr inbounds nuw %struct.AVFilterContext, ptr %12, i32 0, i32 9
  %14 = load ptr, ptr %13, align 8, !tbaa !9
  store ptr %14, ptr %5, align 8, !tbaa !22
  call void @llvm.lifetime.start.p0(i64 8, ptr %6) #12
  %15 = load ptr, ptr %3, align 8, !tbaa !24
  %16 = getelementptr inbounds nuw %struct.AVFilterLink, ptr %15, i32 0, i32 5
  %17 = load i32, ptr %16, align 4, !tbaa !51
  %18 = call ptr @av_pix_fmt_desc_get(i32 noundef %17)
  store ptr %18, ptr %6, align 8, !tbaa !52
  call void @llvm.lifetime.start.p0(i64 4, ptr %7) #12
  %19 = load ptr, ptr %5, align 8, !tbaa !22
  %20 = getelementptr inbounds nuw %struct.ESTDIFContext, ptr %19, i32 0, i32 10
  %21 = getelementptr inbounds [4 x i32], ptr %20, i64 0, i64 0
  %22 = load ptr, ptr %3, align 8, !tbaa !24
  %23 = getelementptr inbounds nuw %struct.AVFilterLink, ptr %22, i32 0, i32 5
  %24 = load i32, ptr %23, align 4, !tbaa !51
  %25 = load ptr, ptr %3, align 8, !tbaa !24
  %26 = getelementptr inbounds nuw %struct.AVFilterLink, ptr %25, i32 0, i32 6
  %27 = load i32, ptr %26, align 8, !tbaa !54
  %28 = call i32 @av_image_fill_linesizes(ptr noundef %21, i32 noundef %24, i32 noundef %27)
  store i32 %28, ptr %7, align 4, !tbaa !49
  %29 = icmp slt i32 %28, 0
  br i1 %29, label %30, label %32

30:                                               ; preds = %1
  %31 = load i32, ptr %7, align 4, !tbaa !49
  store i32 %31, ptr %2, align 4
  store i32 1, ptr %8, align 4
  br label %185

32:                                               ; preds = %1
  %33 = load ptr, ptr %6, align 8, !tbaa !52
  %34 = getelementptr inbounds nuw %struct.AVPixFmtDescriptor, ptr %33, i32 0, i32 3
  %35 = load i8, ptr %34, align 2, !tbaa !55
  %36 = call i1 @llvm.is.constant.i8(i8 %35)
  br i1 %36, label %48, label %37

37:                                               ; preds = %32
  %38 = load ptr, ptr %3, align 8, !tbaa !24
  %39 = getelementptr inbounds nuw %struct.AVFilterLink, ptr %38, i32 0, i32 7
  %40 = load i32, ptr %39, align 4, !tbaa !57
  %41 = sub nsw i32 0, %40
  %42 = load ptr, ptr %6, align 8, !tbaa !52
  %43 = getelementptr inbounds nuw %struct.AVPixFmtDescriptor, ptr %42, i32 0, i32 3
  %44 = load i8, ptr %43, align 2, !tbaa !55
  %45 = zext i8 %44 to i32
  %46 = ashr i32 %41, %45
  %47 = sub nsw i32 0, %46
  br label %64

48:                                               ; preds = %32
  %49 = load ptr, ptr %3, align 8, !tbaa !24
  %50 = getelementptr inbounds nuw %struct.AVFilterLink, ptr %49, i32 0, i32 7
  %51 = load i32, ptr %50, align 4, !tbaa !57
  %52 = load ptr, ptr %6, align 8, !tbaa !52
  %53 = getelementptr inbounds nuw %struct.AVPixFmtDescriptor, ptr %52, i32 0, i32 3
  %54 = load i8, ptr %53, align 2, !tbaa !55
  %55 = zext i8 %54 to i32
  %56 = shl i32 1, %55
  %57 = add nsw i32 %51, %56
  %58 = sub nsw i32 %57, 1
  %59 = load ptr, ptr %6, align 8, !tbaa !52
  %60 = getelementptr inbounds nuw %struct.AVPixFmtDescriptor, ptr %59, i32 0, i32 3
  %61 = load i8, ptr %60, align 2, !tbaa !55
  %62 = zext i8 %61 to i32
  %63 = ashr i32 %58, %62
  br label %64

64:                                               ; preds = %48, %37
  %65 = phi i32 [ %47, %37 ], [ %63, %48 ]
  %66 = load ptr, ptr %5, align 8, !tbaa !22
  %67 = getelementptr inbounds nuw %struct.ESTDIFContext, ptr %66, i32 0, i32 12
  %68 = getelementptr inbounds [4 x i32], ptr %67, i64 0, i64 2
  store i32 %65, ptr %68, align 4, !tbaa !49
  %69 = load ptr, ptr %5, align 8, !tbaa !22
  %70 = getelementptr inbounds nuw %struct.ESTDIFContext, ptr %69, i32 0, i32 12
  %71 = getelementptr inbounds [4 x i32], ptr %70, i64 0, i64 1
  store i32 %65, ptr %71, align 4, !tbaa !49
  %72 = load ptr, ptr %3, align 8, !tbaa !24
  %73 = getelementptr inbounds nuw %struct.AVFilterLink, ptr %72, i32 0, i32 7
  %74 = load i32, ptr %73, align 4, !tbaa !57
  %75 = load ptr, ptr %5, align 8, !tbaa !22
  %76 = getelementptr inbounds nuw %struct.ESTDIFContext, ptr %75, i32 0, i32 12
  %77 = getelementptr inbounds [4 x i32], ptr %76, i64 0, i64 3
  store i32 %74, ptr %77, align 4, !tbaa !49
  %78 = load ptr, ptr %5, align 8, !tbaa !22
  %79 = getelementptr inbounds nuw %struct.ESTDIFContext, ptr %78, i32 0, i32 12
  %80 = getelementptr inbounds [4 x i32], ptr %79, i64 0, i64 0
  store i32 %74, ptr %80, align 4, !tbaa !49
  %81 = load ptr, ptr %6, align 8, !tbaa !52
  %82 = getelementptr inbounds nuw %struct.AVPixFmtDescriptor, ptr %81, i32 0, i32 2
  %83 = load i8, ptr %82, align 1, !tbaa !58
  %84 = call i1 @llvm.is.constant.i8(i8 %83)
  br i1 %84, label %96, label %85

85:                                               ; preds = %64
  %86 = load ptr, ptr %3, align 8, !tbaa !24
  %87 = getelementptr inbounds nuw %struct.AVFilterLink, ptr %86, i32 0, i32 6
  %88 = load i32, ptr %87, align 8, !tbaa !54
  %89 = sub nsw i32 0, %88
  %90 = load ptr, ptr %6, align 8, !tbaa !52
  %91 = getelementptr inbounds nuw %struct.AVPixFmtDescriptor, ptr %90, i32 0, i32 2
  %92 = load i8, ptr %91, align 1, !tbaa !58
  %93 = zext i8 %92 to i32
  %94 = ashr i32 %89, %93
  %95 = sub nsw i32 0, %94
  br label %112

96:                                               ; preds = %64
  %97 = load ptr, ptr %3, align 8, !tbaa !24
  %98 = getelementptr inbounds nuw %struct.AVFilterLink, ptr %97, i32 0, i32 6
  %99 = load i32, ptr %98, align 8, !tbaa !54
  %100 = load ptr, ptr %6, align 8, !tbaa !52
  %101 = getelementptr inbounds nuw %struct.AVPixFmtDescriptor, ptr %100, i32 0, i32 2
  %102 = load i8, ptr %101, align 1, !tbaa !58
  %103 = zext i8 %102 to i32
  %104 = shl i32 1, %103
  %105 = add nsw i32 %99, %104
  %106 = sub nsw i32 %105, 1
  %107 = load ptr, ptr %6, align 8, !tbaa !52
  %108 = getelementptr inbounds nuw %struct.AVPixFmtDescriptor, ptr %107, i32 0, i32 2
  %109 = load i8, ptr %108, align 1, !tbaa !58
  %110 = zext i8 %109 to i32
  %111 = ashr i32 %106, %110
  br label %112

112:                                              ; preds = %96, %85
  %113 = phi i32 [ %95, %85 ], [ %111, %96 ]
  %114 = load ptr, ptr %5, align 8, !tbaa !22
  %115 = getelementptr inbounds nuw %struct.ESTDIFContext, ptr %114, i32 0, i32 11
  %116 = getelementptr inbounds [4 x i32], ptr %115, i64 0, i64 2
  store i32 %113, ptr %116, align 4, !tbaa !49
  %117 = load ptr, ptr %5, align 8, !tbaa !22
  %118 = getelementptr inbounds nuw %struct.ESTDIFContext, ptr %117, i32 0, i32 11
  %119 = getelementptr inbounds [4 x i32], ptr %118, i64 0, i64 1
  store i32 %113, ptr %119, align 4, !tbaa !49
  %120 = load ptr, ptr %3, align 8, !tbaa !24
  %121 = getelementptr inbounds nuw %struct.AVFilterLink, ptr %120, i32 0, i32 6
  %122 = load i32, ptr %121, align 8, !tbaa !54
  %123 = load ptr, ptr %5, align 8, !tbaa !22
  %124 = getelementptr inbounds nuw %struct.ESTDIFContext, ptr %123, i32 0, i32 11
  %125 = getelementptr inbounds [4 x i32], ptr %124, i64 0, i64 3
  store i32 %122, ptr %125, align 4, !tbaa !49
  %126 = load ptr, ptr %5, align 8, !tbaa !22
  %127 = getelementptr inbounds nuw %struct.ESTDIFContext, ptr %126, i32 0, i32 11
  %128 = getelementptr inbounds [4 x i32], ptr %127, i64 0, i64 0
  store i32 %122, ptr %128, align 4, !tbaa !49
  %129 = load ptr, ptr %3, align 8, !tbaa !24
  %130 = getelementptr inbounds nuw %struct.AVFilterLink, ptr %129, i32 0, i32 7
  %131 = load i32, ptr %130, align 4, !tbaa !57
  %132 = icmp slt i32 %131, 3
  br i1 %132, label %133, label %135

133:                                              ; preds = %112
  %134 = load ptr, ptr %4, align 8, !tbaa !4
  call void (ptr, i32, ptr, ...) @av_log(ptr noundef %134, i32 noundef 16, ptr noundef @.str.3)
  store i32 -22, ptr %2, align 4
  store i32 1, ptr %8, align 4
  br label %185

135:                                              ; preds = %112
  %136 = load ptr, ptr %3, align 8, !tbaa !24
  %137 = getelementptr inbounds nuw %struct.AVFilterLink, ptr %136, i32 0, i32 5
  %138 = load i32, ptr %137, align 4, !tbaa !51
  %139 = call i32 @av_pix_fmt_count_planes(i32 noundef %138)
  %140 = load ptr, ptr %5, align 8, !tbaa !22
  %141 = getelementptr inbounds nuw %struct.ESTDIFContext, ptr %140, i32 0, i32 17
  store i32 %139, ptr %141, align 4, !tbaa !59
  %142 = load ptr, ptr %4, align 8, !tbaa !4
  %143 = call i32 @ff_filter_get_nb_threads(ptr noundef %142) #13
  %144 = load ptr, ptr %5, align 8, !tbaa !22
  %145 = getelementptr inbounds nuw %struct.ESTDIFContext, ptr %144, i32 0, i32 18
  store i32 %143, ptr %145, align 8, !tbaa !60
  %146 = load ptr, ptr %6, align 8, !tbaa !52
  %147 = getelementptr inbounds nuw %struct.AVPixFmtDescriptor, ptr %146, i32 0, i32 5
  %148 = getelementptr inbounds [4 x %struct.AVComponentDescriptor], ptr %147, i64 0, i64 0
  %149 = getelementptr inbounds nuw %struct.AVComponentDescriptor, ptr %148, i32 0, i32 4
  %150 = load i32, ptr %149, align 8, !tbaa !61
  %151 = load ptr, ptr %5, align 8, !tbaa !22
  %152 = getelementptr inbounds nuw %struct.ESTDIFContext, ptr %151, i32 0, i32 15
  store i32 %150, ptr %152, align 4, !tbaa !63
  %153 = load ptr, ptr %5, align 8, !tbaa !22
  %154 = getelementptr inbounds nuw %struct.ESTDIFContext, ptr %153, i32 0, i32 15
  %155 = load i32, ptr %154, align 4, !tbaa !63
  %156 = icmp sle i32 %155, 8
  %157 = select i1 %156, ptr @interpolate_8, ptr @interpolate_16
  %158 = load ptr, ptr %5, align 8, !tbaa !22
  %159 = getelementptr inbounds nuw %struct.ESTDIFContext, ptr %158, i32 0, i32 20
  store ptr %157, ptr %159, align 8, !tbaa !64
  %160 = load ptr, ptr %5, align 8, !tbaa !22
  %161 = getelementptr inbounds nuw %struct.ESTDIFContext, ptr %160, i32 0, i32 21
  %162 = getelementptr inbounds [3 x ptr], ptr %161, i64 0, i64 0
  store ptr @mid2_8, ptr %162, align 8, !tbaa !65
  %163 = load ptr, ptr %5, align 8, !tbaa !22
  %164 = getelementptr inbounds nuw %struct.ESTDIFContext, ptr %163, i32 0, i32 21
  %165 = getelementptr inbounds [3 x ptr], ptr %164, i64 0, i64 1
  store ptr @mid4_8, ptr %165, align 8, !tbaa !65
  %166 = load ptr, ptr %5, align 8, !tbaa !22
  %167 = getelementptr inbounds nuw %struct.ESTDIFContext, ptr %166, i32 0, i32 21
  %168 = getelementptr inbounds [3 x ptr], ptr %167, i64 0, i64 2
  store ptr @mid6_8, ptr %168, align 8, !tbaa !65
  %169 = load ptr, ptr %5, align 8, !tbaa !22
  %170 = getelementptr inbounds nuw %struct.ESTDIFContext, ptr %169, i32 0, i32 22
  %171 = getelementptr inbounds [3 x ptr], ptr %170, i64 0, i64 0
  store ptr @mid2_16, ptr %171, align 8, !tbaa !65
  %172 = load ptr, ptr %5, align 8, !tbaa !22
  %173 = getelementptr inbounds nuw %struct.ESTDIFContext, ptr %172, i32 0, i32 22
  %174 = getelementptr inbounds [3 x ptr], ptr %173, i64 0, i64 1
  store ptr @mid4_16, ptr %174, align 8, !tbaa !65
  %175 = load ptr, ptr %5, align 8, !tbaa !22
  %176 = getelementptr inbounds nuw %struct.ESTDIFContext, ptr %175, i32 0, i32 22
  %177 = getelementptr inbounds [3 x ptr], ptr %176, i64 0, i64 2
  store ptr @mid6_16, ptr %177, align 8, !tbaa !65
  %178 = load ptr, ptr %5, align 8, !tbaa !22
  %179 = getelementptr inbounds nuw %struct.ESTDIFContext, ptr %178, i32 0, i32 15
  %180 = load i32, ptr %179, align 4, !tbaa !63
  %181 = shl i32 1, %180
  %182 = sub nsw i32 %181, 1
  %183 = load ptr, ptr %5, align 8, !tbaa !22
  %184 = getelementptr inbounds nuw %struct.ESTDIFContext, ptr %183, i32 0, i32 16
  store i32 %182, ptr %184, align 8, !tbaa !66
  store i32 0, ptr %2, align 4
  store i32 1, ptr %8, align 4
  br label %185

185:                                              ; preds = %135, %133, %30
  call void @llvm.lifetime.end.p0(i64 4, ptr %7) #12
  call void @llvm.lifetime.end.p0(i64 8, ptr %6) #12
  call void @llvm.lifetime.end.p0(i64 8, ptr %5) #12
  call void @llvm.lifetime.end.p0(i64 8, ptr %4) #12
  %186 = load i32, ptr %2, align 4
  ret i32 %186
}