; Function Attrs: nounwind uwtable
define internal range(i32 -2147483648, 1) i32 @config_input(ptr noundef readonly captures(none) %0) #2 {
  %2 = getelementptr inbounds nuw i8, ptr %0, i64 16
  %3 = load ptr, ptr %2, align 8, !tbaa !20
  %4 = getelementptr inbounds nuw i8, ptr %3, i64 72
  %5 = load ptr, ptr %4, align 8, !tbaa !4
  %6 = getelementptr inbounds nuw i8, ptr %0, i64 36
  %7 = load i32, ptr %6, align 4, !tbaa !46
  %8 = tail call ptr @av_pix_fmt_desc_get(i32 noundef %7) #11
  %9 = getelementptr inbounds nuw i8, ptr %5, i64 44
  %10 = load i32, ptr %6, align 4, !tbaa !46
  %11 = getelementptr inbounds nuw i8, ptr %0, i64 40
  %12 = load i32, ptr %11, align 8, !tbaa !47
  %13 = tail call i32 @av_image_fill_linesizes(ptr noundef nonnull %9, i32 noundef %10, i32 noundef %12) #11
  %14 = icmp slt i32 %13, 0
  br i1 %14, label %65, label %15

15:                                               ; preds = %1
  %16 = getelementptr inbounds nuw i8, ptr %0, i64 44
  %17 = load i32, ptr %16, align 4, !tbaa !48
  %18 = sub nsw i32 0, %17
  %19 = getelementptr inbounds nuw i8, ptr %8, i64 10
  %20 = load i8, ptr %19, align 2, !tbaa !49
  %21 = zext nneg i8 %20 to i32
  %22 = ashr i32 %18, %21
  %23 = sub nsw i32 0, %22
  %24 = getelementptr inbounds nuw i8, ptr %5, i64 76
  %25 = getelementptr inbounds nuw i8, ptr %5, i64 84
  store i32 %23, ptr %25, align 4, !tbaa !51
  %26 = getelementptr inbounds nuw i8, ptr %5, i64 80
  store i32 %23, ptr %26, align 4, !tbaa !51
  %27 = getelementptr inbounds nuw i8, ptr %0, i64 44
  %28 = load i32, ptr %27, align 4, !tbaa !48
  %29 = getelementptr inbounds nuw i8, ptr %5, i64 88
  store i32 %28, ptr %29, align 4, !tbaa !51
  store i32 %28, ptr %24, align 4, !tbaa !51
  %30 = load i32, ptr %11, align 8, !tbaa !47
  %31 = sub nsw i32 0, %30
  %32 = getelementptr inbounds nuw i8, ptr %8, i64 9
  %33 = load i8, ptr %32, align 1, !tbaa !52
  %34 = zext nneg i8 %33 to i32
  %35 = ashr i32 %31, %34
  %36 = sub nsw i32 0, %35
  %37 = getelementptr inbounds nuw i8, ptr %5, i64 60
  %38 = getelementptr inbounds nuw i8, ptr %5, i64 68
  store i32 %36, ptr %38, align 4, !tbaa !51
  %39 = getelementptr inbounds nuw i8, ptr %5, i64 64
  store i32 %36, ptr %39, align 4, !tbaa !51
  %40 = load i32, ptr %11, align 8, !tbaa !47
  %41 = getelementptr inbounds nuw i8, ptr %5, i64 72
  store i32 %40, ptr %41, align 4, !tbaa !51
  store i32 %40, ptr %37, align 4, !tbaa !51
  %42 = load i32, ptr %27, align 4, !tbaa !48
  %43 = icmp slt i32 %42, 3
  br i1 %43, label %44, label %45

44:                                               ; preds = %15
  tail call void (ptr, i32, ptr, ...) @av_log(ptr noundef nonnull %3, i32 noundef 16, ptr noundef nonnull @.str.3) #11
  br label %65

45:                                               ; preds = %15
  %46 = load i32, ptr %6, align 4, !tbaa !46
  %47 = tail call i32 @av_pix_fmt_count_planes(i32 noundef %46) #11
  %48 = getelementptr inbounds nuw i8, ptr %5, i64 108
  store i32 %47, ptr %48, align 4, !tbaa !53
  %49 = tail call i32 @ff_filter_get_nb_threads(ptr noundef nonnull %3) #12
  %50 = getelementptr inbounds nuw i8, ptr %5, i64 112
  store i32 %49, ptr %50, align 8, !tbaa !54
  %51 = getelementptr inbounds nuw i8, ptr %8, i64 40
  %52 = load i32, ptr %51, align 8, !tbaa !55
  %53 = getelementptr inbounds nuw i8, ptr %5, i64 100
  store i32 %52, ptr %53, align 4, !tbaa !57
  %54 = icmp slt i32 %52, 9
  %55 = select i1 %54, ptr @interpolate_8, ptr @interpolate_16
  %56 = getelementptr inbounds nuw i8, ptr %5, i64 128
  store ptr %55, ptr %56, align 8, !tbaa !58
  %57 = getelementptr inbounds nuw i8, ptr %5, i64 136
  store ptr @mid2_8, ptr %57, align 8, !tbaa !59
  %58 = getelementptr inbounds nuw i8, ptr %5, i64 144
  store ptr @mid4_8, ptr %58, align 8, !tbaa !59
  %59 = getelementptr inbounds nuw i8, ptr %5, i64 152
  store ptr @mid6_8, ptr %59, align 8, !tbaa !59
  %60 = getelementptr inbounds nuw i8, ptr %5, i64 160
  store ptr @mid2_16, ptr %60, align 8, !tbaa !59
  %61 = getelementptr inbounds nuw i8, ptr %5, i64 168
  store ptr @mid4_16, ptr %61, align 8, !tbaa !59
  %62 = getelementptr inbounds nuw i8, ptr %5, i64 176
  store ptr @mid6_16, ptr %62, align 8, !tbaa !59
  %notmask = shl nsw i32 -1, %52
  %63 = xor i32 %notmask, -1
  %64 = getelementptr inbounds nuw i8, ptr %5, i64 104
  store i32 %63, ptr %64, align 8, !tbaa !60
  br label %65

65:                                               ; preds = %1, %45, %44
  %.0 = phi i32 [ -22, %44 ], [ 0, %45 ], [ %13, %1 ]
  ret i32 %.0
}